target datalayout = "e-m:e-p270:32:32-p271:32:32-p272:64:64-i64:64-i128:128-f80:128-n8:16:32:64-S128"
target triple = "x86_64-pc-linux-gnu"

%struct.archive_read = type { %struct.archive, ptr, i32, i64, i64, %struct.archive_read_client, [16 x %struct.archive_read_filter_bidder], ptr, i32, i64, i32, i32, [16 x %struct.archive_format_descriptor], ptr, ptr, ptr, %struct.anon }
%struct.archive = type { i32, i32, ptr, i32, ptr, i32, i32, ptr, %struct.archive_string, ptr, i32, i32, ptr, ptr, i64, i64, i64, i8, i64 }
%struct.archive_string = type { ptr, i64, i64 }
%struct.archive_read_client = type { ptr, ptr, ptr, ptr, ptr, ptr, i32, i32, i64, ptr }
%struct.archive_read_filter_bidder = type { ptr, ptr, ptr }
%struct.archive_format_descriptor = type { ptr, ptr, ptr, ptr, ptr, ptr, ptr, ptr, ptr, ptr, ptr }
%struct.anon = type { ptr, ptr, i32, ptr, ptr }
%struct.lha = type { i64, i64, i64, i16, i64, i8, [3 x i8], i64, i64, i32, i64, i64, i64, i64, i64, i64, i32, i64, i64, %struct.archive_string, %struct.archive_string, i16, i16, ptr, ptr, ptr, %struct.archive_string, %struct.archive_string, %struct.archive_wstring, i8, i8, i8, i8, i8, i8, i8, [64 x i8], %struct.lzh_stream }
%struct.archive_wstring = type { ptr, i64, i64 }
%struct.lzh_stream = type { ptr, i32, i64, ptr, i32, i64, ptr }

; Function Attrs: nounwind uwtable
define internal i32 @archive_read_format_lha_read_data_skip(ptr noundef %0) #0 {
  %2 = alloca i32, align 4
  %3 = alloca ptr, align 8
  %4 = alloca ptr, align 8
  %5 = alloca i64, align 8
  %6 = alloca i32, align 4
  store ptr %0, ptr %3, align 8, !tbaa !9
  call void @llvm.lifetime.start.p0(i64 8, ptr %4) #11
  call void @llvm.lifetime.start.p0(i64 8, ptr %5) #11
  %7 = load ptr, ptr %3, align 8, !tbaa !9
  %8 = getelementptr inbounds nuw %struct.archive_read, ptr %7, i32 0, i32 13
  %9 = load ptr, ptr %8, align 8, !tbaa !35
  %10 = getelementptr inbounds nuw %struct.archive_format_descriptor, ptr %9, i32 0, i32 0
  %11 = load ptr, ptr %10, align 8, !tbaa !48
  store ptr %11, ptr %4, align 8, !tbaa !13
  %12 = load ptr, ptr %4, align 8, !tbaa !13
  %13 = getelementptr inbounds nuw %struct.lha, ptr %12, i32 0, i32 2
  %14 = load i64, ptr %13, align 8, !tbaa !57
  %15 = icmp ne i64 %14, 0
  br i1 %15, label %16, label %24

16:                                               ; preds = %1
  %17 = load ptr, ptr %3, align 8, !tbaa !9
  %18 = load ptr, ptr %4, align 8, !tbaa !13
  %19 = getelementptr inbounds nuw %struct.lha, ptr %18, i32 0, i32 2
  %20 = load i64, ptr %19, align 8, !tbaa !57
  %21 = call i64 @__archive_read_consume(ptr noundef %17, i64 noundef %20)
  %22 = load ptr, ptr %4, align 8, !tbaa !13
  %23 = getelementptr inbounds nuw %struct.lha, ptr %22, i32 0, i32 2
  store i64 0, ptr %23, align 8, !tbaa !57
  br label %24

24:                                               ; preds = %16, %1
  %25 = load ptr, ptr %4, align 8, !tbaa !13
  %26 = getelementptr inbounds nuw %struct.lha, ptr %25, i32 0, i32 34
  %27 = load i8, ptr %26, align 1, !tbaa !56
  %28 = icmp ne i8 %27, 0
  br i1 %28, label %29, label %30

29:                                               ; preds = %24
  store i32 0, ptr %2, align 4
  store i32 1, ptr %6, align 4
  br label %44

30:                                               ; preds = %24
  %31 = load ptr, ptr %3, align 8, !tbaa !9
  %32 = load ptr, ptr %4, align 8, !tbaa !13
  %33 = getelementptr inbounds nuw %struct.lha, ptr %32, i32 0, i32 1
  %34 = load i64, ptr %33, align 8, !tbaa !102
  %35 = call i64 @__archive_read_consume(ptr noundef %31, i64 noundef %34)
  store i64 %35, ptr %5, align 8, !tbaa !30
  %36 = load i64, ptr %5, align 8, !tbaa !30
  %37 = icmp slt i64 %36, 0
  br i1 %37, label %38, label %39

38:                                               ; preds = %30
  store i32 -30, ptr %2, align 4
  store i32 1, ptr %6, align 4
  br label %44

39:                                               ; preds = %30
  %40 = load ptr, ptr %4, align 8, !tbaa !13
  %41 = getelementptr inbounds nuw %struct.lha, ptr %40, i32 0, i32 33
  store i8 1, ptr %41, align 4, !tbaa !55
  %42 = load ptr, ptr %4, align 8, !tbaa !13
  %43 = getelementptr inbounds nuw %struct.lha, ptr %42, i32 0, i32 34
  store i8 1, ptr %43, align 1, !tbaa !56
  store i32 0, ptr %2, align 4
  store i32 1, ptr %6, align 4
  br label %44

44:                                               ; preds = %39, %38, %29
  call void @llvm.lifetime.end.p0(i64 8, ptr %5) #11
  call void @llvm.lifetime.end.p0(i64 8, ptr %4) #11
  %45 = load i32, ptr %2, align 4
  ret i32 %45
}