; Function Attrs: nounwind uwtable
define internal range(i32 -30, 1) i32 @archive_read_format_lha_read_data_skip(ptr noundef %0) #0 {
  %2 = getelementptr inbounds nuw i8, ptr %0, i64 2072
  %3 = load ptr, ptr %2, align 8, !tbaa !12
  %4 = load ptr, ptr %3, align 8, !tbaa !30
  %5 = getelementptr inbounds nuw i8, ptr %4, i64 16
  %6 = load i64, ptr %5, align 8, !tbaa !48
  %.not = icmp eq i64 %6, 0
  br i1 %.not, label %9, label %7

7:                                                ; preds = %1
  %8 = tail call i64 @__archive_read_consume(ptr noundef nonnull %0, i64 noundef %6) #18
  store i64 0, ptr %5, align 8, !tbaa !48
  br label %9

9:                                                ; preds = %7, %1
  %10 = getelementptr inbounds nuw i8, ptr %4, i64 301
  %11 = load i8, ptr %10, align 1, !tbaa !47
  %.not12 = icmp eq i8 %11, 0
  br i1 %.not12, label %12, label %19

12:                                               ; preds = %9
  %13 = getelementptr inbounds nuw i8, ptr %4, i64 8
  %14 = load i64, ptr %13, align 8, !tbaa !99
  %15 = tail call i64 @__archive_read_consume(ptr noundef nonnull %0, i64 noundef %14) #18
  %16 = icmp slt i64 %15, 0
  br i1 %16, label %19, label %17

17:                                               ; preds = %12
  %18 = getelementptr inbounds nuw i8, ptr %4, i64 300
  store i8 1, ptr %18, align 4, !tbaa !46
  store i8 1, ptr %10, align 1, !tbaa !47
  br label %19

19:                                               ; preds = %12, %9, %17
  %.0 = phi i32 [ 0, %17 ], [ 0, %9 ], [ -30, %12 ]
  ret i32 %.0
}